; Function Attrs: mustprogress nounwind uwtable
define internal fastcc i64 @_ZL16read_stable_markP7oopDesc(ptr noundef %0) unnamed_addr #0 {
  %2 = load volatile i64, ptr %0, align 8
  tail call void asm sideeffect "", "~{memory},~{dirflag},~{fpsr},~{flags}"() #18, !srcloc !10
  %3 = icmp eq i64 %2, 0
  %4 = load i32, ptr @LockingMode, align 4
  %5 = icmp ne i32 %4, 2
  %or.cond.not = select i1 %3, i1 %5, i1 false
  br i1 %or.cond.not, label %.preheader, label %.loopexit

.preheader:                                       ; preds = %1
  %6 = load volatile i64, ptr %0, align 8
  tail call void asm sideeffect "", "~{memory},~{dirflag},~{fpsr},~{flags}"() #18, !srcloc !10
  %7 = icmp eq i64 %6, 0
  br i1 %7, label %.lr.ph20, label %.loopexit

.lr.ph20:                                         ; preds = %.preheader
  %8 = ptrtoint ptr %0 to i64
  %9 = lshr i64 %8, 5
  %10 = and i64 %9, 255
  %11 = getelementptr inbounds [256 x [40 x i8]], ptr @_ZL16_inflation_locks, i64 0, i64 %10
  %12 = tail call align 8 ptr @llvm.threadlocal.address.p0(ptr align 8 @_ZN6Thread12_thr_currentE)
  br label %13

13:                                               ; preds = %.lr.ph20, %39
  %.01019 = phi i32 [ 0, %.lr.ph20 ], [ %14, %39 ]
  %14 = add nuw nsw i32 %.01019, 1
  %15 = icmp ult i32 %.01019, 10000
  %16 = load i32, ptr @_ZN2os16_processor_countE, align 4
  %17 = icmp ne i32 %16, 1
  %or.cond = select i1 %15, i1 %17, i1 false
  br i1 %or.cond, label %37, label %18

18:                                               ; preds = %13
  %19 = and i32 %.01019, 1
  %.not.not = icmp eq i32 %19, 0
  br i1 %.not.not, label %20, label %21

20:                                               ; preds = %18
  tail call void @_ZN2os11naked_yieldEv() #18
  br label %39

21:                                               ; preds = %18
  %22 = tail call i32 @pthread_mutex_lock(ptr noundef nonnull %11) #18
  %23 = load volatile i64, ptr %0, align 8
  tail call void asm sideeffect "", "~{memory},~{dirflag},~{fpsr},~{flags}"() #18, !srcloc !10
  %24 = icmp eq i64 %23, 0
  br i1 %24, label %.lr.ph, label %._crit_edge

.lr.ph:                                           ; preds = %21, %33
  %.018 = phi i32 [ %25, %33 ], [ 0, %21 ]
  %25 = add nuw nsw i32 %.018, 1
  %26 = icmp ugt i32 %.018, 15
  br i1 %26, label %27, label %32

27:                                               ; preds = %.lr.ph
  %28 = load ptr, ptr %12, align 8
  %29 = getelementptr inbounds i8, ptr %28, i64 848
  %30 = load volatile ptr, ptr %29, align 8
  %31 = tail call noundef i32 @_ZN13PlatformEvent4parkEl(ptr noundef nonnull align 8 dereferenceable(144) %30, i64 noundef 1) #18
  br label %33

32:                                               ; preds = %.lr.ph
  tail call void @_ZN2os11naked_yieldEv() #18
  br label %33

33:                                               ; preds = %32, %27
  %34 = load volatile i64, ptr %0, align 8
  tail call void asm sideeffect "", "~{memory},~{dirflag},~{fpsr},~{flags}"() #18, !srcloc !10
  %35 = icmp eq i64 %34, 0
  br i1 %35, label %.lr.ph, label %._crit_edge, !llvm.loop !37

._crit_edge:                                      ; preds = %33, %21
  %36 = tail call i32 @pthread_mutex_unlock(ptr noundef nonnull %11) #18
  br label %39

37:                                               ; preds = %13
  %38 = tail call i32 @SpinPause() #18
  br label %39

39:                                               ; preds = %20, %._crit_edge, %37
  %40 = load volatile i64, ptr %0, align 8
  tail call void asm sideeffect "", "~{memory},~{dirflag},~{fpsr},~{flags}"() #18, !srcloc !10
  %41 = icmp eq i64 %40, 0
  br i1 %41, label %13, label %.loopexit, !llvm.loop !38

.loopexit:                                        ; preds = %39, %.preheader, %1
  %.sroa.015.0 = phi i64 [ %2, %1 ], [ %6, %.preheader ], [ %40, %39 ]
  ret i64 %.sroa.015.0
}